target datalayout = "e-m:e-p270:32:32-p271:32:32-p272:64:64-i64:64-i128:128-f80:128-n8:16:32:64-S128"
target triple = "x86_64-pc-linux-gnu"

; Function Attrs: mustprogress uwtable
define dso_local noundef i32 @_Z10luaB_inextP9lua_State(ptr noundef %0) #0 {
  %2 = alloca ptr, align 8
  %3 = alloca i32, align 4
  store ptr %0, ptr %2, align 8
  %4 = load ptr, ptr %2, align 8
  %5 = call noundef i32 @_Z17luaL_checkintegerP9lua_Statei(ptr noundef %4, i32 noundef 2)
  store i32 %5, ptr %3, align 4
  %6 = load ptr, ptr %2, align 8
  call void @_Z14luaL_checktypeP9lua_Stateii(ptr noundef %6, i32 noundef 1, i32 noundef 6)
  %7 = load i32, ptr %3, align 4
  %8 = add nsw i32 %7, 1
  store i32 %8, ptr %3, align 4
  %9 = load ptr, ptr %2, align 8
  %10 = load i32, ptr %3, align 4
  call void @_Z15lua_pushintegerP9lua_Statei(ptr noundef %9, i32 noundef %10)
  %11 = load ptr, ptr %2, align 8
  %12 = load i32, ptr %3, align 4
  %13 = call noundef i32 @_Z11lua_rawgetiP9lua_Stateii(ptr noundef %11, i32 noundef 1, i32 noundef %12)
  %14 = load ptr, ptr %2, align 8
  %15 = call noundef i32 @_Z8lua_typeP9lua_Statei(ptr noundef %14, i32 noundef -1)
  %16 = icmp eq i32 %15, 0
  %17 = select i1 %16, i32 0, i32 2
  ret i32 %17
}