; Function Attrs: mustprogress uwtable
define dso_local noundef range(i32 0, 3) i32 @_Z10luaB_inextP9lua_State(ptr noundef %0) #0 {
  %2 = tail call noundef i32 @_Z17luaL_checkintegerP9lua_Statei(ptr noundef %0, i32 noundef 2)
  tail call void @_Z14luaL_checktypeP9lua_Stateii(ptr noundef %0, i32 noundef 1, i32 noundef 6)
  %3 = add nsw i32 %2, 1
  tail call void @_Z15lua_pushintegerP9lua_Statei(ptr noundef %0, i32 noundef %3)
  %4 = tail call noundef i32 @_Z11lua_rawgetiP9lua_Stateii(ptr noundef %0, i32 noundef 1, i32 noundef %3)
  %5 = tail call noundef i32 @_Z8lua_typeP9lua_Statei(ptr noundef %0, i32 noundef -1)
  %6 = icmp eq i32 %5, 0
  %7 = select i1 %6, i32 0, i32 2
  ret i32 %7
}